target datalayout = "e-m:e-p270:32:32-p271:32:32-p272:64:64-i64:64-i128:128-f80:128-n8:16:32:64-S128"
target triple = "x86_64-pc-linux-gnu"

@.str.9 = private unnamed_addr constant [6 x i8] c"UTF-8\00", align 1
@.str.764 = private unnamed_addr constant [9 x i8] c"UTF-16LE\00", align 1
@.str.765 = private unnamed_addr constant [8 x i8] c"UCS-4BE\00", align 1
@.str.768 = private unnamed_addr constant [9 x i8] c"UTF-16BE\00", align 1
@.str.773 = private unnamed_addr constant [6 x i8] c"UCS-4\00", align 1
@.str.777 = private unnamed_addr constant [5 x i8] c"UCS4\00", align 1
@.str.780 = private unnamed_addr constant [8 x i8] c"UCS-4LE\00", align 1
@.str.792 = private unnamed_addr constant [56 x i8] c"entconv: EBCDIC encoding is not supported in line mode\0A\00", align 1

; Function Attrs: nounwind uwtable
define internal ptr @detect_encoding(ptr noundef %0, ptr noundef %1, ptr noundef %2) #0 {
  %4 = alloca ptr, align 8
  %5 = alloca ptr, align 8
  %6 = alloca ptr, align 8
  %7 = alloca ptr, align 8
  %8 = alloca i32, align 4
  %9 = alloca i8, align 1
  store ptr %0, ptr %4, align 8
  store ptr %1, ptr %5, align 8
  store ptr %2, ptr %6, align 8
  store ptr null, ptr %7, align 8
  store i32 0, ptr %8, align 4
  store i8 1, ptr %9, align 1
  %10 = load ptr, ptr %4, align 8
  %11 = getelementptr inbounds i8, ptr %10, i64 0
  %12 = load i8, ptr %11, align 1
  %13 = zext i8 %12 to i32
  switch i32 %13, label %240 [
    i32 0, label %14
    i32 255, label %107
    i32 254, label %129
    i32 239, label %151
    i32 60, label %165
    i32 76, label %220
  ]

14:                                               ; preds = %3
  %15 = load ptr, ptr %4, align 8
  %16 = getelementptr inbounds i8, ptr %15, i64 1
  %17 = load i8, ptr %16, align 1
  %18 = zext i8 %17 to i32
  %19 = icmp eq i32 %18, 0
  br i1 %19, label %20, label %76

20:                                               ; preds = %14
  %21 = load ptr, ptr %4, align 8
  %22 = getelementptr inbounds i8, ptr %21, i64 2
  %23 = load i8, ptr %22, align 1
  %24 = zext i8 %23 to i32
  %25 = icmp eq i32 %24, 254
  br i1 %25, label %26, label %33

26:                                               ; preds = %20
  %27 = load ptr, ptr %4, align 8
  %28 = getelementptr inbounds i8, ptr %27, i64 3
  %29 = load i8, ptr %28, align 1
  %30 = zext i8 %29 to i32
  %31 = icmp eq i32 %30, 255
  br i1 %31, label %32, label %33

32:                                               ; preds = %26
  store ptr @.str.765, ptr %7, align 8
  store i32 1, ptr %8, align 4
  store i8 4, ptr %9, align 1
  br label %75

33:                                               ; preds = %26, %20
  %34 = load ptr, ptr %4, align 8
  %35 = getelementptr inbounds i8, ptr %34, i64 2
  %36 = load i8, ptr %35, align 1
  %37 = zext i8 %36 to i32
  %38 = icmp eq i32 %37, 255
  br i1 %38, label %39, label %46

39:                                               ; preds = %33
  %40 = load ptr, ptr %4, align 8
  %41 = getelementptr inbounds i8, ptr %40, i64 3
  %42 = load i8, ptr %41, align 1
  %43 = zext i8 %42 to i32
  %44 = icmp eq i32 %43, 254
  br i1 %44, label %45, label %46

45:                                               ; preds = %39
  store ptr @.str.777, ptr %7, align 8
  store i32 1, ptr %8, align 4
  store i8 4, ptr %9, align 1
  br label %74

46:                                               ; preds = %39, %33
  %47 = load ptr, ptr %4, align 8
  %48 = getelementptr inbounds i8, ptr %47, i64 2
  %49 = load i8, ptr %48, align 1
  %50 = zext i8 %49 to i32
  %51 = icmp eq i32 %50, 0
  br i1 %51, label %52, label %59

52:                                               ; preds = %46
  %53 = load ptr, ptr %4, align 8
  %54 = getelementptr inbounds i8, ptr %53, i64 3
  %55 = load i8, ptr %54, align 1
  %56 = zext i8 %55 to i32
  %57 = icmp eq i32 %56, 60
  br i1 %57, label %58, label %59

58:                                               ; preds = %52
  store ptr @.str.765, ptr %7, align 8
  store i8 4, ptr %9, align 1
  br label %73

59:                                               ; preds = %52, %46
  %60 = load ptr, ptr %4, align 8
  %61 = getelementptr inbounds i8, ptr %60, i64 2
  %62 = load i8, ptr %61, align 1
  %63 = zext i8 %62 to i32
  %64 = icmp eq i32 %63, 60
  br i1 %64, label %65, label %72

65:                                               ; preds = %59
  %66 = load ptr, ptr %4, align 8
  %67 = getelementptr inbounds i8, ptr %66, i64 3
  %68 = load i8, ptr %67, align 1
  %69 = zext i8 %68 to i32
  %70 = icmp eq i32 %69, 0
  br i1 %70, label %71, label %72

71:                                               ; preds = %65
  store ptr @.str.777, ptr %7, align 8
  store i8 4, ptr %9, align 1
  br label %72

72:                                               ; preds = %71, %65, %59
  br label %73

73:                                               ; preds = %72, %58
  br label %74

74:                                               ; preds = %73, %45
  br label %75

75:                                               ; preds = %74, %32
  br label %106

76:                                               ; preds = %14
  %77 = load ptr, ptr %4, align 8
  %78 = getelementptr inbounds i8, ptr %77, i64 1
  %79 = load i8, ptr %78, align 1
  %80 = zext i8 %79 to i32
  %81 = icmp eq i32 %80, 60
  br i1 %81, label %82, label %105

82:                                               ; preds = %76
  %83 = load ptr, ptr %4, align 8
  %84 = getelementptr inbounds i8, ptr %83, i64 2
  %85 = load i8, ptr %84, align 1
  %86 = zext i8 %85 to i32
  %87 = icmp eq i32 %86, 0
  br i1 %87, label %88, label %104

88:                                               ; preds = %82
  %89 = load ptr, ptr %4, align 8
  %90 = getelementptr inbounds i8, ptr %89, i64 3
  %91 = load i8, ptr %90, align 1
  %92 = zext i8 %91 to i32
  %93 = icmp eq i32 %92, 0
  br i1 %93, label %94, label %95

94:                                               ; preds = %88
  store ptr @.str.773, ptr %7, align 8
  store i8 4, ptr %9, align 1
  br label %103

95:                                               ; preds = %88
  %96 = load ptr, ptr %4, align 8
  %97 = getelementptr inbounds i8, ptr %96, i64 3
  %98 = load i8, ptr %97, align 1
  %99 = zext i8 %98 to i32
  %100 = icmp eq i32 %99, 63
  br i1 %100, label %101, label %102

101:                                              ; preds = %95
  store ptr @.str.768, ptr %7, align 8
  store i8 2, ptr %9, align 1
  br label %102

102:                                              ; preds = %101, %95
  br label %103

103:                                              ; preds = %102, %94
  br label %104

104:                                              ; preds = %103, %82
  br label %105

105:                                              ; preds = %104, %76
  br label %106

106:                                              ; preds = %105, %75
  br label %240

107:                                              ; preds = %3
  %108 = load ptr, ptr %4, align 8
  %109 = getelementptr inbounds i8, ptr %108, i64 1
  %110 = load i8, ptr %109, align 1
  %111 = zext i8 %110 to i32
  %112 = icmp eq i32 %111, 254
  br i1 %112, label %113, label %128

113:                                              ; preds = %107
  %114 = load ptr, ptr %4, align 8
  %115 = getelementptr inbounds i8, ptr %114, i64 2
  %116 = load i8, ptr %115, align 1
  %117 = zext i8 %116 to i32
  %118 = icmp eq i32 %117, 0
  br i1 %118, label %119, label %126

119:                                              ; preds = %113
  %120 = load ptr, ptr %4, align 8
  %121 = getelementptr inbounds i8, ptr %120, i64 3
  %122 = load i8, ptr %121, align 1
  %123 = zext i8 %122 to i32
  %124 = icmp eq i32 %123, 0
  br i1 %124, label %125, label %126

125:                                              ; preds = %119
  store ptr @.str.780, ptr %7, align 8
  store i8 4, ptr %9, align 1
  store i32 1, ptr %8, align 4
  br label %127

126:                                              ; preds = %119, %113
  store ptr @.str.764, ptr %7, align 8
  store i32 1, ptr %8, align 4
  store i8 2, ptr %9, align 1
  br label %127

127:                                              ; preds = %126, %125
  br label %128

128:                                              ; preds = %127, %107
  br label %240

129:                                              ; preds = %3
  %130 = load ptr, ptr %4, align 8
  %131 = getelementptr inbounds i8, ptr %130, i64 1
  %132 = load i8, ptr %131, align 1
  %133 = zext i8 %132 to i32
  %134 = icmp eq i32 %133, 255
  br i1 %134, label %135, label %150

135:                                              ; preds = %129
  %136 = load ptr, ptr %4, align 8
  %137 = getelementptr inbounds i8, ptr %136, i64 2
  %138 = load i8, ptr %137, align 1
  %139 = zext i8 %138 to i32
  %140 = icmp eq i32 %139, 0
  br i1 %140, label %141, label %148

141:                                              ; preds = %135
  %142 = load ptr, ptr %4, align 8
  %143 = getelementptr inbounds i8, ptr %142, i64 3
  %144 = load i8, ptr %143, align 1
  %145 = zext i8 %144 to i32
  %146 = icmp eq i32 %145, 0
  br i1 %146, label %147, label %148

147:                                              ; preds = %141
  store ptr @.str.773, ptr %7, align 8
  store i8 4, ptr %9, align 1
  store i32 1, ptr %8, align 4
  br label %149

148:                                              ; preds = %141, %135
  store ptr @.str.768, ptr %7, align 8
  store i32 1, ptr %8, align 4
  store i8 2, ptr %9, align 1
  br label %149

149:                                              ; preds = %148, %147
  br label %150

150:                                              ; preds = %149, %129
  br label %240

151:                                              ; preds = %3
  %152 = load ptr, ptr %4, align 8
  %153 = getelementptr inbounds i8, ptr %152, i64 1
  %154 = load i8, ptr %153, align 1
  %155 = zext i8 %154 to i32
  %156 = icmp eq i32 %155, 187
  br i1 %156, label %157, label %164

157:                                              ; preds = %151
  %158 = load ptr, ptr %4, align 8
  %159 = getelementptr inbounds i8, ptr %158, i64 2
  %160 = load i8, ptr %159, align 1
  %161 = zext i8 %160 to i32
  %162 = icmp eq i32 %161, 191
  br i1 %162, label %163, label %164

163:                                              ; preds = %157
  store ptr @.str.9, ptr %7, align 8
  store i32 1, ptr %8, align 4
  br label %164

164:                                              ; preds = %163, %157, %151
  br label %240

165:                                              ; preds = %3
  %166 = load ptr, ptr %4, align 8
  %167 = getelementptr inbounds i8, ptr %166, i64 1
  %168 = load i8, ptr %167, align 1
  %169 = zext i8 %168 to i32
  %170 = icmp eq i32 %169, 0
  br i1 %170, label %171, label %199

171:                                              ; preds = %165
  %172 = load ptr, ptr %4, align 8
  %173 = getelementptr inbounds i8, ptr %172, i64 2
  %174 = load i8, ptr %173, align 1
  %175 = zext i8 %174 to i32
  %176 = icmp eq i32 %175, 0
  br i1 %176, label %177, label %184

177:                                              ; preds = %171
  %178 = load ptr, ptr %4, align 8
  %179 = getelementptr inbounds i8, ptr %178, i64 3
  %180 = load i8, ptr %179, align 1
  %181 = zext i8 %180 to i32
  %182 = icmp eq i32 %181, 0
  br i1 %182, label %183, label %184

183:                                              ; preds = %177
  store ptr @.str.780, ptr %7, align 8
  store i8 4, ptr %9, align 1
  br label %198

184:                                              ; preds = %177, %171
  %185 = load ptr, ptr %4, align 8
  %186 = getelementptr inbounds i8, ptr %185, i64 2
  %187 = load i8, ptr %186, align 1
  %188 = zext i8 %187 to i32
  %189 = icmp eq i32 %188, 63
  br i1 %189, label %190, label %197

190:                                              ; preds = %184
  %191 = load ptr, ptr %4, align 8
  %192 = getelementptr inbounds i8, ptr %191, i64 3
  %193 = load i8, ptr %192, align 1
  %194 = zext i8 %193 to i32
  %195 = icmp eq i32 %194, 0
  br i1 %195, label %196, label %197

196:                                              ; preds = %190
  store ptr @.str.764, ptr %7, align 8
  store i8 2, ptr %9, align 1
  br label %197

197:                                              ; preds = %196, %190, %184
  br label %198

198:                                              ; preds = %197, %183
  br label %219

199:                                              ; preds = %165
  %200 = load ptr, ptr %4, align 8
  %201 = getelementptr inbounds i8, ptr %200, i64 1
  %202 = load i8, ptr %201, align 1
  %203 = zext i8 %202 to i32
  %204 = icmp eq i32 %203, 63
  br i1 %204, label %205, label %218

205:                                              ; preds = %199
  %206 = load ptr, ptr %4, align 8
  %207 = getelementptr inbounds i8, ptr %206, i64 2
  %208 = load i8, ptr %207, align 1
  %209 = zext i8 %208 to i32
  %210 = icmp eq i32 %209, 120
  br i1 %210, label %211, label %218

211:                                              ; preds = %205
  %212 = load ptr, ptr %4, align 8
  %213 = getelementptr inbounds i8, ptr %212, i64 3
  %214 = load i8, ptr %213, align 1
  %215 = zext i8 %214 to i32
  %216 = icmp eq i32 %215, 109
  br i1 %216, label %217, label %218

217:                                              ; preds = %211
  store ptr null, ptr %7, align 8
  store i8 1, ptr %9, align 1
  br label %218

218:                                              ; preds = %217, %211, %205, %199
  br label %219

219:                                              ; preds = %218, %198
  br label %240

220:                                              ; preds = %3
  %221 = load ptr, ptr %4, align 8
  %222 = getelementptr inbounds i8, ptr %221, i64 1
  %223 = load i8, ptr %222, align 1
  %224 = zext i8 %223 to i32
  %225 = icmp eq i32 %224, 111
  br i1 %225, label %226, label %239

226:                                              ; preds = %220
  %227 = load ptr, ptr %4, align 8
  %228 = getelementptr inbounds i8, ptr %227, i64 2
  %229 = load i8, ptr %228, align 1
  %230 = zext i8 %229 to i32
  %231 = icmp eq i32 %230, 167
  br i1 %231, label %232, label %239

232:                                              ; preds = %226
  %233 = load ptr, ptr %4, align 8
  %234 = getelementptr inbounds i8, ptr %233, i64 3
  %235 = load i8, ptr %234, align 1
  %236 = zext i8 %235 to i32
  %237 = icmp eq i32 %236, 148
  br i1 %237, label %238, label %239

238:                                              ; preds = %232
  call void (ptr, ...) @cli_dbgmsg(ptr noundef @.str.792)
  store ptr null, ptr %7, align 8
  store i8 1, ptr %9, align 1
  br label %239

239:                                              ; preds = %238, %232, %226, %220
  br label %240

240:                                              ; preds = %239, %219, %164, %150, %128, %106, %3
  %241 = load i8, ptr %9, align 1
  %242 = load ptr, ptr %6, align 8
  store i8 %241, ptr %242, align 1
  %243 = load i32, ptr %8, align 4
  %244 = trunc i32 %243 to i8
  %245 = load ptr, ptr %5, align 8
  store i8 %244, ptr %245, align 1
  %246 = load ptr, ptr %7, align 8
  ret ptr %246
}

; Function Attrs: nounwind uwtable
define ptr @encoding_detect_bom(ptr noundef %0, i64 noundef %1) #0 {
  %3 = alloca ptr, align 8
  %4 = alloca ptr, align 8
  %5 = alloca i64, align 8
  %6 = alloca i8, align 1
  %7 = alloca i8, align 1
  %8 = alloca ptr, align 8
  store ptr %0, ptr %4, align 8
  store i64 %1, ptr %5, align 8
  %9 = load i64, ptr %5, align 8
  %10 = icmp ult i64 %9, 4
  br i1 %10, label %11, label %12

11:                                               ; preds = %2
  store ptr null, ptr %3, align 8
  br label %23

12:                                               ; preds = %2
  %13 = load ptr, ptr %4, align 8
  %14 = call ptr @detect_encoding(ptr noundef %13, ptr noundef %6, ptr noundef %7)
  store ptr %14, ptr %8, align 8
  %15 = load i8, ptr %7, align 1
  %16 = zext i8 %15 to i32
  %17 = icmp sgt i32 %16, 1
  br i1 %17, label %18, label %20

18:                                               ; preds = %12
  %19 = load ptr, ptr %8, align 8
  br label %21

20:                                               ; preds = %12
  br label %21

21:                                               ; preds = %20, %18
  %22 = phi ptr [ %19, %18 ], [ null, %20 ]
  store ptr %22, ptr %3, align 8
  br label %23

23:                                               ; preds = %21, %11
  %24 = load ptr, ptr %3, align 8
  ret ptr %24
}