; Function Attrs: nounwind uwtable
define ptr @encoding_detect_bom(ptr nocapture noundef readonly %0, i64 noundef %1) local_unnamed_addr #0 {
  %3 = icmp ult i64 %1, 4
  br i1 %3, label %detect_encoding.exit, label %4

4:                                                ; preds = %2
  %5 = load i8, ptr %0, align 1
  switch i8 %5, label %detect_encoding.exit.thread [
    i8 0, label %6
    i8 -1, label %35
    i8 -2, label %48
    i8 76, label %75
    i8 60, label %61
  ]

6:                                                ; preds = %4
  %7 = getelementptr inbounds i8, ptr %0, i64 1
  %8 = load i8, ptr %7, align 1
  switch i8 %8, label %detect_encoding.exit.thread [
    i8 0, label %9
    i8 60, label %28
  ]

9:                                                ; preds = %6
  %10 = getelementptr inbounds i8, ptr %0, i64 2
  %11 = load i8, ptr %10, align 1
  switch i8 %11, label %detect_encoding.exit.thread [
    i8 -2, label %12
    i8 -1, label %16
    i8 0, label %20
    i8 60, label %24
  ]

12:                                               ; preds = %9
  %13 = getelementptr inbounds i8, ptr %0, i64 3
  %14 = load i8, ptr %13, align 1
  %15 = icmp eq i8 %14, -1
  br i1 %15, label %detect_encoding.exit, label %detect_encoding.exit.thread

16:                                               ; preds = %9
  %17 = getelementptr inbounds i8, ptr %0, i64 3
  %18 = load i8, ptr %17, align 1
  %19 = icmp eq i8 %18, -2
  br i1 %19, label %detect_encoding.exit, label %detect_encoding.exit.thread

20:                                               ; preds = %9
  %21 = getelementptr inbounds i8, ptr %0, i64 3
  %22 = load i8, ptr %21, align 1
  %23 = icmp eq i8 %22, 60
  br i1 %23, label %detect_encoding.exit, label %detect_encoding.exit.thread

24:                                               ; preds = %9
  %25 = getelementptr inbounds i8, ptr %0, i64 3
  %26 = load i8, ptr %25, align 1
  %27 = icmp eq i8 %26, 0
  br i1 %27, label %detect_encoding.exit, label %detect_encoding.exit.thread

28:                                               ; preds = %6
  %29 = getelementptr inbounds i8, ptr %0, i64 2
  %30 = load i8, ptr %29, align 1
  %31 = icmp eq i8 %30, 0
  br i1 %31, label %32, label %detect_encoding.exit.thread

32:                                               ; preds = %28
  %33 = getelementptr inbounds i8, ptr %0, i64 3
  %34 = load i8, ptr %33, align 1
  %switch.selectcmp = icmp eq i8 %34, 63
  %switch.select = select i1 %switch.selectcmp, ptr @.str.768, ptr null
  %switch.selectcmp8 = icmp eq i8 %34, 0
  %switch.select9 = select i1 %switch.selectcmp8, ptr @.str.773, ptr %switch.select
  br label %detect_encoding.exit

35:                                               ; preds = %4
  %36 = getelementptr inbounds i8, ptr %0, i64 1
  %37 = load i8, ptr %36, align 1
  %38 = icmp eq i8 %37, -2
  br i1 %38, label %39, label %detect_encoding.exit.thread

39:                                               ; preds = %35
  %40 = getelementptr inbounds i8, ptr %0, i64 2
  %41 = load i8, ptr %40, align 1
  %42 = icmp eq i8 %41, 0
  br i1 %42, label %43, label %47

43:                                               ; preds = %39
  %44 = getelementptr inbounds i8, ptr %0, i64 3
  %45 = load i8, ptr %44, align 1
  %46 = icmp eq i8 %45, 0
  br i1 %46, label %detect_encoding.exit, label %47

47:                                               ; preds = %43, %39
  br label %detect_encoding.exit

48:                                               ; preds = %4
  %49 = getelementptr inbounds i8, ptr %0, i64 1
  %50 = load i8, ptr %49, align 1
  %51 = icmp eq i8 %50, -1
  br i1 %51, label %52, label %detect_encoding.exit.thread

52:                                               ; preds = %48
  %53 = getelementptr inbounds i8, ptr %0, i64 2
  %54 = load i8, ptr %53, align 1
  %55 = icmp eq i8 %54, 0
  br i1 %55, label %56, label %60

56:                                               ; preds = %52
  %57 = getelementptr inbounds i8, ptr %0, i64 3
  %58 = load i8, ptr %57, align 1
  %59 = icmp eq i8 %58, 0
  br i1 %59, label %detect_encoding.exit, label %60

60:                                               ; preds = %56, %52
  br label %detect_encoding.exit

61:                                               ; preds = %4
  %62 = getelementptr inbounds i8, ptr %0, i64 1
  %63 = load i8, ptr %62, align 1
  %cond.i = icmp eq i8 %63, 0
  br i1 %cond.i, label %64, label %detect_encoding.exit.thread

64:                                               ; preds = %61
  %65 = getelementptr inbounds i8, ptr %0, i64 2
  %66 = load i8, ptr %65, align 1
  switch i8 %66, label %detect_encoding.exit.thread [
    i8 0, label %67
    i8 63, label %71
  ]

67:                                               ; preds = %64
  %68 = getelementptr inbounds i8, ptr %0, i64 3
  %69 = load i8, ptr %68, align 1
  %70 = icmp eq i8 %69, 0
  br i1 %70, label %detect_encoding.exit, label %detect_encoding.exit.thread

71:                                               ; preds = %64
  %72 = getelementptr inbounds i8, ptr %0, i64 3
  %73 = load i8, ptr %72, align 1
  %74 = icmp eq i8 %73, 0
  br i1 %74, label %detect_encoding.exit, label %detect_encoding.exit.thread

75:                                               ; preds = %4
  %76 = getelementptr inbounds i8, ptr %0, i64 1
  %77 = load i8, ptr %76, align 1
  %78 = icmp eq i8 %77, 111
  br i1 %78, label %79, label %detect_encoding.exit.thread

79:                                               ; preds = %75
  %80 = getelementptr inbounds i8, ptr %0, i64 2
  %81 = load i8, ptr %80, align 1
  %82 = icmp eq i8 %81, -89
  br i1 %82, label %83, label %detect_encoding.exit.thread

83:                                               ; preds = %79
  %84 = getelementptr inbounds i8, ptr %0, i64 3
  %85 = load i8, ptr %84, align 1
  %86 = icmp eq i8 %85, -108
  br i1 %86, label %87, label %detect_encoding.exit.thread

87:                                               ; preds = %83
  tail call void (ptr, ...) @cli_dbgmsg(ptr noundef nonnull @.str.792) #16
  br label %detect_encoding.exit.thread

detect_encoding.exit.thread:                      ; preds = %4, %87, %83, %79, %75, %48, %35, %28, %24, %6, %71, %61, %9, %67, %64, %20, %16, %12
  br label %detect_encoding.exit

detect_encoding.exit:                             ; preds = %32, %67, %71, %24, %detect_encoding.exit.thread, %60, %56, %47, %43, %20, %16, %12, %2
  %.0 = phi ptr [ null, %2 ], [ null, %detect_encoding.exit.thread ], [ @.str.768, %60 ], [ @.str.764, %47 ], [ @.str.765, %12 ], [ @.str.777, %16 ], [ @.str.765, %20 ], [ @.str.780, %43 ], [ @.str.773, %56 ], [ @.str.777, %24 ], [ @.str.764, %71 ], [ @.str.780, %67 ], [ %switch.select9, %32 ]
  ret ptr %.0
}